; Function Attrs: mustprogress nounwind uwtable
define hidden i32 @_ZNK22XPhysicalMemoryBacking9fallocateEbmm(ptr noundef nonnull align 8 dereferenceable(41) %0, i1 noundef zeroext %1, i64 noundef %2, i64 noundef %3) local_unnamed_addr #0 align 2 {
  %5 = alloca %class.XErrno, align 4
  br i1 %1, label %6, label %8

6:                                                ; preds = %4
  %7 = tail call i32 @_ZNK22XPhysicalMemoryBacking20fallocate_punch_holeEmm(ptr noundef nonnull align 8 dereferenceable(41) %0, i64 noundef %2, i64 noundef %3)
  br label %10

8:                                                ; preds = %4
  %9 = tail call i32 @_ZNK22XPhysicalMemoryBacking19fallocate_fill_holeEmm(ptr noundef nonnull align 8 dereferenceable(41) %0, i64 noundef %2, i64 noundef %3)
  br label %10

10:                                               ; preds = %8, %6
  %storemerge = phi i32 [ %9, %8 ], [ %7, %6 ]
  store i32 %storemerge, ptr %5, align 4
  %11 = call noundef zeroext i1 @_ZNK6XErrnoeqEi(ptr noundef nonnull align 4 dereferenceable(4) %5, i32 noundef 4) #12
  %12 = getelementptr inbounds i8, ptr %0, i64 24
  %13 = load i64, ptr %12, align 8
  %14 = icmp ult i64 %13, %3
  %or.cond = select i1 %11, i1 %14, i1 false
  br i1 %or.cond, label %15, label %17

15:                                               ; preds = %10
  %16 = call i32 @_ZNK22XPhysicalMemoryBacking19split_and_fallocateEbmm(ptr noundef nonnull align 8 dereferenceable(41) %0, i1 noundef zeroext %1, i64 noundef %2, i64 noundef %3)
  br label %18

17:                                               ; preds = %10
  %.sroa.0.0.copyload = load i32, ptr %5, align 4
  br label %18

18:                                               ; preds = %17, %15
  %.sroa.0.0 = phi i32 [ %16, %15 ], [ %.sroa.0.0.copyload, %17 ]
  ret i32 %.sroa.0.0
}